target datalayout = "e-m:e-p270:32:32-p271:32:32-p272:64:64-i64:64-i128:128-f80:128-n8:16:32:64-S128"
target triple = "x86_64-pc-linux-gnu"

; Function Attrs: nounwind uwtable
define dso_local i32 @zend_get_opcode_flags(i8 noundef zeroext %0) #0 {
  %2 = alloca i8, align 1
  store i8 %0, ptr %2, align 1, !tbaa !4
  %3 = load i8, ptr %2, align 1, !tbaa !4
  %4 = zext i8 %3 to i32
  %5 = icmp sgt i32 %4, 209
  %6 = xor i1 %5, true
  %7 = xor i1 %6, true
  %8 = zext i1 %7 to i32
  %9 = sext i32 %8 to i64
  %10 = call i64 @llvm.expect.i64(i64 %9, i64 0)
  %11 = icmp ne i64 %10, 0
  br i1 %11, label %12, label %13

12:                                               ; preds = %1
  store i8 0, ptr %2, align 1, !tbaa !4
  br label %13

13:                                               ; preds = %12, %1
  %14 = load i8, ptr %2, align 1, !tbaa !4
  %15 = zext i8 %14 to i64
  %16 = getelementptr inbounds nuw [210 x i32], ptr @zend_vm_opcodes_flags, i64 0, i64 %15
  %17 = load i32, ptr %16, align 4, !tbaa !10
  ret i32 %17
}