; Function Attrs: mustprogress nofree norecurse nosync nounwind willreturn memory(none) uwtable
define dso_local i32 @zend_get_opcode_flags(i8 noundef zeroext %0) local_unnamed_addr #0 {
  %2 = icmp ugt i8 %0, -47
  br i1 %2, label %3, label %4, !prof !4

3:                                                ; preds = %1
  br label %4

4:                                                ; preds = %3, %1
  %.0 = phi i8 [ 0, %3 ], [ %0, %1 ]
  %5 = zext i8 %.0 to i64
  %6 = getelementptr inbounds nuw [210 x i32], ptr @zend_vm_opcodes_flags, i64 0, i64 %5
  %7 = load i32, ptr %6, align 4, !tbaa !10
  ret i32 %7
}